ARM GAS  C:\Users\Mikael\AppData\Local\Temp\cc7sULrf.s 			page 1


   1              		.syntax unified
   2              		.cpu cortex-m3
   3              		.fpu softvfp
   4              		.eabi_attribute 20, 1
   5              		.eabi_attribute 21, 1
   6              		.eabi_attribute 23, 3
   7              		.eabi_attribute 24, 1
   8              		.eabi_attribute 25, 1
   9              		.eabi_attribute 26, 1
  10              		.eabi_attribute 30, 1
  11              		.eabi_attribute 34, 1
  12              		.eabi_attribute 18, 4
  13              		.thumb
  14              		.file	"main.c"
  15              		.text
  16              	.Ltext0:
  17              		.cfi_sections	.debug_frame
  18              		.global	__aeabi_i2d
  19              		.global	__aeabi_dmul
  20              		.global	__aeabi_d2iz
  21              		.section	.text.main,"ax",%progbits
  22              		.align	2
  23              		.global	main
  24              		.thumb
  25              		.thumb_func
  26              		.type	main, %function
  27              	main:
  28              	.LFB63:
  29              		.file 1 "main.c"
   1:main.c        **** 
   2:main.c        **** #include <project.h>
   3:main.c        **** #include <stdio.h>
   4:main.c        **** #include "Motor.h"
   5:main.c        **** #include "Ultra.h"
   6:main.c        **** #include "Nunchuk.h"
   7:main.c        **** #include "Reflectance.h"
   8:main.c        **** #include "I2C_made.h"
   9:main.c        **** #include "Gyro.h"
  10:main.c        **** #include "Accel_magnet.h"
  11:main.c        **** #include "IR.h"
  12:main.c        **** #include "Ambient.h"
  13:main.c        **** #include "Beep.h"
  14:main.c        **** #include "math.h"
  15:main.c        **** 
  16:main.c        **** 
  17:main.c        **** #define MAGICNUM 0.012624 /*
  18:main.c        **** MAGICNUM is calculated with a following logic:
  19:main.c        **** MAXSPEED /(infraMax 23999 -infraMin 3770)
  20:main.c        **** */
  21:main.c        **** 
  22:main.c        **** int rread(void);
  23:main.c        **** 
  24:main.c        **** int main()
  25:main.c        **** {
  30              		.loc 1 25 0
  31              		.cfi_startproc
  32              		@ args = 0, pretend = 0, frame = 16
ARM GAS  C:\Users\Mikael\AppData\Local\Temp\cc7sULrf.s 			page 2


  33              		@ frame_needed = 0, uses_anonymous_args = 0
  34 0000 2DE9F043 		push	{r4, r5, r6, r7, r8, r9, lr}
  35              		.cfi_def_cfa_offset 28
  36              		.cfi_offset 4, -28
  37              		.cfi_offset 5, -24
  38              		.cfi_offset 6, -20
  39              		.cfi_offset 7, -16
  40              		.cfi_offset 8, -12
  41              		.cfi_offset 9, -8
  42              		.cfi_offset 14, -4
  43 0004 85B0     		sub	sp, sp, #20
  44              		.cfi_def_cfa_offset 48
  26:main.c        **** 
  27:main.c        ****     
  28:main.c        **** //----[STARTING ESSENTIAL COMPONENTS. DO NOT ALTER THESE]----------
  29:main.c        ****     struct sensors_ ref;
  30:main.c        ****     struct sensors_ dig;
  31:main.c        ****     CyGlobalIntEnable; 
  45              		.loc 1 31 0
  46              	@ 31 "main.c" 1
  47 0006 62B6     		CPSIE   i
  48              	@ 0 "" 2
  32:main.c        ****     UART_1_Start();
  49              		.loc 1 32 0
  50              		.thumb
  51 0008 FFF7FEFF 		bl	UART_1_Start
  52              	.LVL0:
  33:main.c        ****     sensor_isr_StartEx(sensor_isr_handler);
  53              		.loc 1 33 0
  54 000c 4648     		ldr	r0, .L22+8
  55 000e FFF7FEFF 		bl	sensor_isr_StartEx
  56              	.LVL1:
  34:main.c        ****     reflectance_start();
  57              		.loc 1 34 0
  58 0012 FFF7FEFF 		bl	reflectance_start
  59              	.LVL2:
  35:main.c        ****     motor_start();
  60              		.loc 1 35 0
  61 0016 FFF7FEFF 		bl	motor_start
  62              	.LVL3:
  36:main.c        ****     IR_led_Write(1);
  63              		.loc 1 36 0
  64 001a 0120     		movs	r0, #1
  65 001c FFF7FEFF 		bl	IR_led_Write
  66              	.LVL4:
  37:main.c        **** //-----------------------------------------------------------------
  38:main.c        ****     
  39:main.c        ****     int whichmotor = 0; /*
  40:main.c        ****     Program uses this to find back to the track if the robot looses it.
  41:main.c        ****     motor number 1 is LEFT
  42:main.c        ****     motor number 2 is RIGHT
  43:main.c        ****     */
  44:main.c        **** 
  45:main.c        ****     int kmk = 0; /*
  67              		.loc 1 45 0
  68 0020 4FF00009 		mov	r9, #0
  39:main.c        ****     Program uses this to find back to the track if the robot looses it.
ARM GAS  C:\Users\Mikael\AppData\Local\Temp\cc7sULrf.s 			page 3


  69              		.loc 1 39 0
  70 0024 C846     		mov	r8, r9
  71              	.LVL5:
  72              	.L12:
  73              	.LBB2:
  46:main.c        ****     Counter for start/stop funtion at the start and the finishline
  47:main.c        ****     */
  48:main.c        ****     
  49:main.c        ****     
  50:main.c        ****     for(;;)
  51:main.c        ****     {
  52:main.c        ****         
  53:main.c        **** //------[1. CALCULATE MOTORSPEEDS]-----------------------------------------------------------------
  54:main.c        ****         
  55:main.c        ****         reflectance_read(&ref);
  74              		.loc 1 55 0
  75 0026 02A8     		add	r0, sp, #8
  76 0028 FFF7FEFF 		bl	reflectance_read
  77              	.LVL6:
  56:main.c        ****         reflectance_digital(&dig);
  78              		.loc 1 56 0
  79 002c 6846     		mov	r0, sp
  80 002e FFF7FEFF 		bl	reflectance_digital
  81              	.LVL7:
  57:main.c        **** 
  58:main.c        ****         double infraR = ref.r1 - 3770;
  82              		.loc 1 58 0
  83 0032 BDF80C00 		ldrh	r0, [sp, #12]
  84 0036 A0F6BA60 		subw	r0, r0, #3770
  85 003a FFF7FEFF 		bl	__aeabi_i2d
  86              	.LVL8:
  87 003e 0446     		mov	r4, r0
  88 0040 0D46     		mov	r5, r1
  89              	.LVL9:
  59:main.c        ****         double infraL = ref.l1 - 3770;
  90              		.loc 1 59 0
  91 0042 BDF80A00 		ldrh	r0, [sp, #10]
  92 0046 A0F6BA60 		subw	r0, r0, #3770
  93 004a FFF7FEFF 		bl	__aeabi_i2d
  94              	.LVL10:
  60:main.c        ****         double rightMotorRaw = MAGICNUM * infraL;
  95              		.loc 1 60 0
  96 004e 34A3     		adr	r3, .L22
  97 0050 D3E90023 		ldrd	r2, [r3]
  98 0054 FFF7FEFF 		bl	__aeabi_dmul
  99              	.LVL11:
 100 0058 0646     		mov	r6, r0
 101 005a 0F46     		mov	r7, r1
 102              	.LVL12:
  61:main.c        ****         double leftMotorRaw = MAGICNUM * infraR;
 103              		.loc 1 61 0
 104 005c 2046     		mov	r0, r4
 105 005e 2946     		mov	r1, r5
 106 0060 2FA3     		adr	r3, .L22
 107 0062 D3E90023 		ldrd	r2, [r3]
 108 0066 FFF7FEFF 		bl	__aeabi_dmul
 109              	.LVL13:
ARM GAS  C:\Users\Mikael\AppData\Local\Temp\cc7sULrf.s 			page 4


  62:main.c        ****         
  63:main.c        ****         // Convert speeds to int
  64:main.c        ****         int leftMotor = (int) leftMotorRaw;
 110              		.loc 1 64 0
 111 006a FFF7FEFF 		bl	__aeabi_d2iz
 112              	.LVL14:
 113 006e 0546     		mov	r5, r0
 114              	.LVL15:
  65:main.c        ****         int rightMotor = (int) rightMotorRaw;
 115              		.loc 1 65 0
 116 0070 3046     		mov	r0, r6
 117              	.LVL16:
 118 0072 3946     		mov	r1, r7
 119 0074 FFF7FEFF 		bl	__aeabi_d2iz
 120              	.LVL17:
 121 0078 0446     		mov	r4, r0
 122              	.LVL18:
  66:main.c        ****             
  67:main.c        **** //------[2. STOPPING AT LINES]---------------------------------------------------------------------
  68:main.c        **** 
  69:main.c        ****         // Used for the start and the end of the race.
  70:main.c        **** 
  71:main.c        ****         if (dig.l3 == 0 && dig.l1 == 0 && dig.r1 == 0 && dig.r3 == 0) {
 123              		.loc 1 71 0
 124 007a BDF80030 		ldrh	r3, [sp]
 125 007e 0BBB     		cbnz	r3, .L2
 126              		.loc 1 71 0 is_stmt 0 discriminator 1
 127 0080 BDF80230 		ldrh	r3, [sp, #2]
 128 0084 F3B9     		cbnz	r3, .L2
 129              		.loc 1 71 0 discriminator 2
 130 0086 BDF80430 		ldrh	r3, [sp, #4]
 131 008a DBB9     		cbnz	r3, .L2
 132              		.loc 1 71 0 discriminator 3
 133 008c BDF80630 		ldrh	r3, [sp, #6]
 134 0090 C3B9     		cbnz	r3, .L2
  72:main.c        **** 
  73:main.c        ****             if(kmk == 0) /* First black line = START */ {
 135              		.loc 1 73 0 is_stmt 1
 136 0092 B9F1000F 		cmp	r9, #0
 137 0096 06D1     		bne	.L3
  74:main.c        ****                 motor_stop();
 138              		.loc 1 74 0
 139 0098 FFF7FEFF 		bl	motor_stop
 140              	.LVL19:
  75:main.c        ****                 wait_going_down(); // Waits for the command from the remote control
 141              		.loc 1 75 0
 142 009c FFF7FEFF 		bl	wait_going_down
 143              	.LVL20:
  76:main.c        ****                 motor_start();
 144              		.loc 1 76 0
 145 00a0 FFF7FEFF 		bl	motor_start
 146              	.LVL21:
 147 00a4 04E0     		b	.L4
 148              	.LVL22:
 149              	.L3:
  77:main.c        ****             } else if (kmk == 2) /* Third black line = GOAL */ {
 150              		.loc 1 77 0
ARM GAS  C:\Users\Mikael\AppData\Local\Temp\cc7sULrf.s 			page 5


 151 00a6 B9F1020F 		cmp	r9, #2
 152 00aa 01D1     		bne	.L4
  78:main.c        ****                 motor_stop();
 153              		.loc 1 78 0
 154 00ac FFF7FEFF 		bl	motor_stop
 155              	.LVL23:
 156              	.L4:
  79:main.c        ****             }
  80:main.c        ****             
  81:main.c        ****             // Do these at every line
  82:main.c        ****             kmk++;
 157              		.loc 1 82 0
 158 00b0 09F10109 		add	r9, r9, #1
 159              	.LVL24:
  83:main.c        ****             CyDelay(100);
 160              		.loc 1 83 0
 161 00b4 6420     		movs	r0, #100
 162 00b6 FFF7FEFF 		bl	CyDelay
 163              	.LVL25:
  84:main.c        ****             motor_turn(leftMotor, rightMotor, 0);
 164              		.loc 1 84 0
 165 00ba E8B2     		uxtb	r0, r5
 166 00bc E1B2     		uxtb	r1, r4
 167 00be 0022     		movs	r2, #0
 168 00c0 FFF7FEFF 		bl	motor_turn
 169              	.LVL26:
 170              	.L2:
  85:main.c        ****             
  86:main.c        ****         }
  87:main.c        **** 
  88:main.c        **** //------[3. HARD TURN]-----------------------------------------------------------------------------
  89:main.c        **** /*
  90:main.c        ****         If the robot drives away from the track,
  91:main.c        ****         this figures out that from which side the robot has driven out and then drives back.
  92:main.c        **** */    
  93:main.c        ****         if (rightMotor < 80 && leftMotor < 80) {
 171              		.loc 1 93 0
 172 00c4 4F2C     		cmp	r4, #79
 173 00c6 06DC     		bgt	.L5
 174              		.loc 1 93 0 is_stmt 0 discriminator 1
 175 00c8 4F2D     		cmp	r5, #79
 176 00ca 04DC     		bgt	.L5
  94:main.c        ****             if (whichmotor == 1) {
 177              		.loc 1 94 0 is_stmt 1
 178 00cc B8F1010F 		cmp	r8, #1
 179 00d0 06D1     		bne	.L13
  95:main.c        ****                 leftMotor = 255;
 180              		.loc 1 95 0
 181 00d2 FF25     		movs	r5, #255
 182              	.LVL27:
 183 00d4 0BE0     		b	.L6
 184              	.LVL28:
 185              	.L5:
  96:main.c        ****             } else {
  97:main.c        ****                 rightMotor = 255;
  98:main.c        ****             }
  99:main.c        ****         } else if (leftMotor < 80) {
ARM GAS  C:\Users\Mikael\AppData\Local\Temp\cc7sULrf.s 			page 6


 186              		.loc 1 99 0
 187 00d6 4F2D     		cmp	r5, #79
 188 00d8 04DD     		ble	.L14
 100:main.c        ****             whichmotor = 2; // right
 101:main.c        ****         } else if (rightMotor < 80) {
 189              		.loc 1 101 0
 190 00da 4F2C     		cmp	r4, #79
 191 00dc 05DD     		ble	.L15
 192 00de 06E0     		b	.L6
 193              	.L13:
  97:main.c        ****             }
 194              		.loc 1 97 0
 195 00e0 FF24     		movs	r4, #255
 196              	.LVL29:
 197 00e2 04E0     		b	.L6
 198              	.LVL30:
 199              	.L14:
 100:main.c        ****             whichmotor = 2; // right
 200              		.loc 1 100 0
 201 00e4 4FF00208 		mov	r8, #2
 202              	.LVL31:
 203 00e8 01E0     		b	.L6
 204              	.LVL32:
 205              	.L15:
 102:main.c        ****             whichmotor = 1; // left
 206              		.loc 1 102 0
 207 00ea 4FF00108 		mov	r8, #1
 208              	.LVL33:
 209              	.L6:
 103:main.c        ****         }
 104:main.c        ****         
 105:main.c        **** //------[4. ASSISTIVE IF STATEMENTS]---------------------------------------------------------------
 106:main.c        ****         
 107:main.c        ****         // If motors get a same speed, go full speed. This makes the robot faster and makes the acc
 108:main.c        ****         if (leftMotor == rightMotor) {
 210              		.loc 1 108 0
 211 00ee A542     		cmp	r5, r4
 212 00f0 01D1     		bne	.L7
 109:main.c        ****             leftMotor = 255;
 110:main.c        ****             rightMotor = 255;
 213              		.loc 1 110 0
 214 00f2 FF24     		movs	r4, #255
 215              	.LVL34:
 109:main.c        ****             leftMotor = 255;
 216              		.loc 1 109 0
 217 00f4 2546     		mov	r5, r4
 218              	.LVL35:
 219              	.L7:
 111:main.c        ****         }
 112:main.c        ****         
 113:main.c        ****         // Motor speed can't exceed 255. Ensures the stability of the motor
 114:main.c        ****         if (leftMotor > 100) {
 220              		.loc 1 114 0
 221 00f6 642D     		cmp	r5, #100
 222 00f8 00DD     		ble	.L8
 115:main.c        ****             leftMotor = 255;
 223              		.loc 1 115 0
ARM GAS  C:\Users\Mikael\AppData\Local\Temp\cc7sULrf.s 			page 7


 224 00fa FF25     		movs	r5, #255
 225              	.LVL36:
 226              	.L8:
 116:main.c        ****         }
 117:main.c        ****         
 118:main.c        ****         if (rightMotor > 100) {
 227              		.loc 1 118 0
 228 00fc 642C     		cmp	r4, #100
 229 00fe 00DD     		ble	.L9
 119:main.c        ****             rightMotor = 255;
 230              		.loc 1 119 0
 231 0100 FF24     		movs	r4, #255
 232              	.LVL37:
 233              	.L9:
 120:main.c        ****         }
 121:main.c        ****         
 122:main.c        ****         
 123:main.c        ****         // Motor speed can't go lower than 1. Ensures the stability of the motor
 124:main.c        ****         if (rightMotor <= 1) {
 234              		.loc 1 124 0
 235 0102 012C     		cmp	r4, #1
 236 0104 00DC     		bgt	.L10
 125:main.c        ****             rightMotor = 1;
 237              		.loc 1 125 0
 238 0106 0124     		movs	r4, #1
 239              	.LVL38:
 240              	.L10:
 126:main.c        ****         }
 127:main.c        ****         
 128:main.c        ****         if (leftMotor <= 1) {
 241              		.loc 1 128 0
 242 0108 012D     		cmp	r5, #1
 243 010a 00DC     		bgt	.L11
 129:main.c        ****             leftMotor = 1;
 244              		.loc 1 129 0
 245 010c 0125     		movs	r5, #1
 246              	.LVL39:
 247              	.L11:
 130:main.c        ****         }
 131:main.c        ****         
 132:main.c        **** //------[5. DRIVE]---------------------------------------------------------------------------------
 133:main.c        ****         
 134:main.c        ****         motor_turn(leftMotor, rightMotor, 0);
 248              		.loc 1 134 0
 249 010e E8B2     		uxtb	r0, r5
 250 0110 E1B2     		uxtb	r1, r4
 251 0112 0022     		movs	r2, #0
 252 0114 FFF7FEFF 		bl	motor_turn
 253              	.LVL40:
 254              	.LBE2:
 135:main.c        **** 
 136:main.c        ****     }
 255              		.loc 1 136 0
 256 0118 85E7     		b	.L12
 257              	.L23:
 258 011a 00BFAFF3 		.align	3
 258      0080
ARM GAS  C:\Users\Mikael\AppData\Local\Temp\cc7sULrf.s 			page 8


 259              	.L22:
 260 0120 925A2899 		.word	-1725408622
 261 0124 9CDA893F 		.word	1065999004
 262 0128 00000000 		.word	sensor_isr_handler
 263              		.cfi_endproc
 264              	.LFE63:
 265              		.size	main, .-main
 266 012c AFF30080 		.section	.text._write,"ax",%progbits
 267              		.align	2
 268              		.global	_write
 269              		.thumb
 270              		.thumb_func
 271              		.type	_write, %function
 272              	_write:
 273              	.LFB64:
 137:main.c        **** }   
 138:main.c        **** 
 139:main.c        **** 
 140:main.c        **** 
 141:main.c        **** 
 142:main.c        **** 
 143:main.c        **** 
 144:main.c        **** #if 0
 145:main.c        **** int rread(void)
 146:main.c        **** {
 147:main.c        ****     SC0_SetDriveMode(PIN_DM_STRONG);
 148:main.c        ****     SC0_Write(1);
 149:main.c        ****     CyDelayUs(10);
 150:main.c        ****     SC0_SetDriveMode(PIN_DM_DIG_HIZ);
 151:main.c        ****     Timer_1_Start();
 152:main.c        ****     uint16_t start = Timer_1_ReadCounter();
 153:main.c        ****     uint16_t end = 0;
 154:main.c        ****     while(!(Timer_1_ReadStatusRegister() & Timer_1_STATUS_TC)) {
 155:main.c        ****         if(SC0_Read() == 0 && end == 0) {
 156:main.c        ****             end = Timer_1_ReadCounter();
 157:main.c        ****         }
 158:main.c        ****     }
 159:main.c        ****     Timer_1_Stop();
 160:main.c        ****     
 161:main.c        ****     return (start - end);
 162:main.c        **** }
 163:main.c        **** #endif
 164:main.c        **** 
 165:main.c        **** /* Don't remove the functions below */
 166:main.c        **** int _write(int file, char *ptr, int len)
 167:main.c        **** {
 274              		.loc 1 167 0
 275              		.cfi_startproc
 276              		@ args = 0, pretend = 0, frame = 0
 277              		@ frame_needed = 0, uses_anonymous_args = 0
 278              	.LVL41:
 279 0000 F8B5     		push	{r3, r4, r5, r6, r7, lr}
 280              		.cfi_def_cfa_offset 24
 281              		.cfi_offset 3, -24
 282              		.cfi_offset 4, -20
 283              		.cfi_offset 5, -16
 284              		.cfi_offset 6, -12
ARM GAS  C:\Users\Mikael\AppData\Local\Temp\cc7sULrf.s 			page 9


 285              		.cfi_offset 7, -8
 286              		.cfi_offset 14, -4
 287 0002 0C46     		mov	r4, r1
 288 0004 1746     		mov	r7, r2
 289              	.LVL42:
 168:main.c        ****     (void)file; /* Parameter is not used, suppress unused argument warning */
 169:main.c        **** 	int n;
 170:main.c        **** 	for(n = 0; n < len; n++) {
 290              		.loc 1 170 0
 291 0006 0025     		movs	r5, #0
 292 0008 0BE0     		b	.L25
 293              	.LVL43:
 294              	.L27:
 171:main.c        ****         if(*ptr == '\n') UART_1_PutChar('\r');
 295              		.loc 1 171 0
 296 000a 2378     		ldrb	r3, [r4]	@ zero_extendqisi2
 297 000c 0A2B     		cmp	r3, #10
 298 000e 02D1     		bne	.L26
 299              		.loc 1 171 0 is_stmt 0 discriminator 1
 300 0010 0D20     		movs	r0, #13
 301 0012 FFF7FEFF 		bl	UART_1_PutChar
 302              	.LVL44:
 303              	.L26:
 172:main.c        **** 		UART_1_PutChar(*ptr++);
 304              		.loc 1 172 0 is_stmt 1 discriminator 2
 305 0016 661C     		adds	r6, r4, #1
 306              	.LVL45:
 307 0018 2078     		ldrb	r0, [r4]	@ zero_extendqisi2
 308 001a FFF7FEFF 		bl	UART_1_PutChar
 309              	.LVL46:
 170:main.c        ****         if(*ptr == '\n') UART_1_PutChar('\r');
 310              		.loc 1 170 0 discriminator 2
 311 001e 0135     		adds	r5, r5, #1
 312              	.LVL47:
 313              		.loc 1 172 0 discriminator 2
 314 0020 3446     		mov	r4, r6
 315              	.LVL48:
 316              	.L25:
 170:main.c        ****         if(*ptr == '\n') UART_1_PutChar('\r');
 317              		.loc 1 170 0 discriminator 1
 318 0022 BD42     		cmp	r5, r7
 319 0024 F1DB     		blt	.L27
 173:main.c        **** 	}
 174:main.c        **** 	return len;
 175:main.c        **** }
 320              		.loc 1 175 0
 321 0026 3846     		mov	r0, r7
 322 0028 F8BD     		pop	{r3, r4, r5, r6, r7, pc}
 323              		.cfi_endproc
 324              	.LFE64:
 325              		.size	_write, .-_write
 326 002a 00BF     		.section	.text._read,"ax",%progbits
 327              		.align	2
 328              		.global	_read
 329              		.thumb
 330              		.thumb_func
 331              		.type	_read, %function
ARM GAS  C:\Users\Mikael\AppData\Local\Temp\cc7sULrf.s 			page 10


 332              	_read:
 333              	.LFB65:
 176:main.c        **** 
 177:main.c        **** int _read (int file, char *ptr, int count)
 178:main.c        **** {
 334              		.loc 1 178 0
 335              		.cfi_startproc
 336              		@ args = 0, pretend = 0, frame = 0
 337              		@ frame_needed = 0, uses_anonymous_args = 0
 338              	.LVL49:
 339 0000 F8B5     		push	{r3, r4, r5, r6, r7, lr}
 340              		.cfi_def_cfa_offset 24
 341              		.cfi_offset 3, -24
 342              		.cfi_offset 4, -20
 343              		.cfi_offset 5, -16
 344              		.cfi_offset 6, -12
 345              		.cfi_offset 7, -8
 346              		.cfi_offset 14, -4
 347 0002 0F46     		mov	r7, r1
 348 0004 1446     		mov	r4, r2
 349              	.LVL50:
 179:main.c        ****     int chs = 0;
 350              		.loc 1 179 0
 351 0006 0026     		movs	r6, #0
 180:main.c        ****     char ch;
 181:main.c        ****  
 182:main.c        ****     (void)file; /* Parameter is not used, suppress unused argument warning */
 183:main.c        ****     while(count > 0) {
 352              		.loc 1 183 0
 353 0008 12E0     		b	.L31
 354              	.LVL51:
 355              	.L34:
 184:main.c        ****         ch = UART_1_GetChar();
 356              		.loc 1 184 0
 357 000a FFF7FEFF 		bl	UART_1_GetChar
 358              	.LVL52:
 185:main.c        ****         if(ch != 0) {
 359              		.loc 1 185 0
 360 000e 0546     		mov	r5, r0
 361 0010 70B1     		cbz	r0, .L31
 186:main.c        ****             UART_1_PutChar(ch);
 362              		.loc 1 186 0
 363 0012 FFF7FEFF 		bl	UART_1_PutChar
 364              	.LVL53:
 187:main.c        ****             chs++;
 365              		.loc 1 187 0
 366 0016 0136     		adds	r6, r6, #1
 367              	.LVL54:
 188:main.c        ****             if(ch == '\r') {
 368              		.loc 1 188 0
 369 0018 0D2D     		cmp	r5, #13
 370 001a 03D1     		bne	.L32
 371              	.LVL55:
 189:main.c        ****                 ch = '\n';
 190:main.c        ****                 UART_1_PutChar(ch);
 372              		.loc 1 190 0
 373 001c 0A20     		movs	r0, #10
ARM GAS  C:\Users\Mikael\AppData\Local\Temp\cc7sULrf.s 			page 11


 374 001e FFF7FEFF 		bl	UART_1_PutChar
 375              	.LVL56:
 189:main.c        ****                 ch = '\n';
 376              		.loc 1 189 0
 377 0022 0A25     		movs	r5, #10
 378              	.LVL57:
 379              	.L32:
 191:main.c        ****             }
 192:main.c        ****             *ptr++ = ch;
 380              		.loc 1 192 0
 381 0024 7B1C     		adds	r3, r7, #1
 382              	.LVL58:
 383 0026 3D70     		strb	r5, [r7]
 193:main.c        ****             count--;
 384              		.loc 1 193 0
 385 0028 013C     		subs	r4, r4, #1
 386              	.LVL59:
 194:main.c        ****             if(ch == '\n') break;
 387              		.loc 1 194 0
 388 002a 0A2D     		cmp	r5, #10
 389 002c 02D0     		beq	.L33
 192:main.c        ****             count--;
 390              		.loc 1 192 0
 391 002e 1F46     		mov	r7, r3
 392              	.LVL60:
 393              	.L31:
 183:main.c        ****         ch = UART_1_GetChar();
 394              		.loc 1 183 0
 395 0030 002C     		cmp	r4, #0
 396 0032 EADC     		bgt	.L34
 397              	.LVL61:
 398              	.L33:
 195:main.c        ****         }
 196:main.c        ****     }
 197:main.c        ****     return chs;
 198:main.c        **** }
 399              		.loc 1 198 0
 400 0034 3046     		mov	r0, r6
 401 0036 F8BD     		pop	{r3, r4, r5, r6, r7, pc}
 402              		.cfi_endproc
 403              	.LFE65:
 404              		.size	_read, .-_read
 405              		.text
 406              	.Letext0:
 407              		.file 2 "c:\\program files (x86)\\cypress\\psoc creator\\4.0\\psoc creator\\import\\gnu\\arm\\4.9.
 408              		.file 3 "c:\\program files (x86)\\cypress\\psoc creator\\4.0\\psoc creator\\import\\gnu\\arm\\4.9.
 409              		.file 4 "Generated_Source\\PSoC5/cytypes.h"
 410              		.file 5 ".\\ZumoLibrary/Reflectance.h"
 411              		.file 6 ".\\ZumoLibrary/Motor.h"
 412              		.file 7 ".\\ZumoLibrary/IR.h"
 413              		.file 8 "Generated_Source\\PSoC5/CyLib.h"
 414              		.file 9 "Generated_Source\\PSoC5/sensor_isr.h"
 415              		.file 10 "Generated_Source\\PSoC5/UART_1.h"
 416              		.file 11 "Generated_Source\\PSoC5/IR_led.h"
 417              		.file 12 "Generated_Source\\PSoC5/core_cm3.h"