ARM GAS  C:\Users\roba420\AppData\Local\Temp\ccYjtIGd.s 			page 1


   1              		.syntax unified
   2              		.cpu cortex-m3
   3              		.fpu softvfp
   4              		.eabi_attribute 20, 1
   5              		.eabi_attribute 21, 1
   6              		.eabi_attribute 23, 3
   7              		.eabi_attribute 24, 1
   8              		.eabi_attribute 25, 1
   9              		.eabi_attribute 26, 1
  10              		.eabi_attribute 30, 1
  11              		.eabi_attribute 34, 1
  12              		.eabi_attribute 18, 4
  13              		.thumb
  14              		.file	"main.c"
  15              		.text
  16              	.Ltext0:
  17              		.cfi_sections	.debug_frame
  18              		.section	.text.main,"ax",%progbits
  19              		.align	2
  20              		.global	main
  21              		.thumb
  22              		.thumb_func
  23              		.type	main, %function
  24              	main:
  25              	.LFB63:
  26              		.file 1 "main.c"
   1:main.c        **** 
   2:main.c        **** #include <project.h>
   3:main.c        **** #include <stdio.h>
   4:main.c        **** #include "Motor.h"
   5:main.c        **** #include "Ultra.h"
   6:main.c        **** #include "Nunchuk.h"
   7:main.c        **** #include "Reflectance.h"
   8:main.c        **** #include "I2C_made.h"
   9:main.c        **** #include "Gyro.h"
  10:main.c        **** #include "Accel_magnet.h"
  11:main.c        **** #include "IR.h"
  12:main.c        **** #include "Ambient.h"
  13:main.c        **** #include "Beep.h"
  14:main.c        **** #include "math.h"
  15:main.c        **** 
  16:main.c        **** int rread(void);
  17:main.c        **** 
  18:main.c        **** int main()
  19:main.c        **** {
  27              		.loc 1 19 0
  28              		.cfi_startproc
  29              		@ args = 0, pretend = 0, frame = 16
  30              		@ frame_needed = 0, uses_anonymous_args = 0
  31 0000 10B5     		push	{r4, lr}
  32              		.cfi_def_cfa_offset 8
  33              		.cfi_offset 4, -8
  34              		.cfi_offset 14, -4
  35 0002 86B0     		sub	sp, sp, #24
  36              		.cfi_def_cfa_offset 32
  20:main.c        ****     struct sensors_ ref;
  21:main.c        ****     struct sensors_ dig;
ARM GAS  C:\Users\roba420\AppData\Local\Temp\ccYjtIGd.s 			page 2


  22:main.c        ****     CyGlobalIntEnable; 
  37              		.loc 1 22 0
  38              	@ 22 "main.c" 1
  39 0004 62B6     		CPSIE   i
  40              	@ 0 "" 2
  23:main.c        ****     UART_1_Start();
  41              		.loc 1 23 0
  42              		.thumb
  43 0006 FFF7FEFF 		bl	UART_1_Start
  44              	.LVL0:
  24:main.c        ****   
  25:main.c        ****     printf("main start\n");
  45              		.loc 1 25 0
  46 000a 5048     		ldr	r0, .L11
  47 000c FFF7FEFF 		bl	puts
  48              	.LVL1:
  26:main.c        ****     
  27:main.c        ****     sensor_isr_StartEx(sensor_isr_handler);
  49              		.loc 1 27 0
  50 0010 4F48     		ldr	r0, .L11+4
  51 0012 FFF7FEFF 		bl	sensor_isr_StartEx
  52              	.LVL2:
  28:main.c        ****     
  29:main.c        ****     reflectance_start();
  53              		.loc 1 29 0
  54 0016 FFF7FEFF 		bl	reflectance_start
  55              	.LVL3:
  30:main.c        **** 
  31:main.c        ****     IR_led_Write(1);
  56              		.loc 1 31 0
  57 001a 0120     		movs	r0, #1
  58 001c FFF7FEFF 		bl	IR_led_Write
  59              	.LVL4:
  32:main.c        ****     printf("SAATANA\n");
  60              		.loc 1 32 0
  61 0020 4C48     		ldr	r0, .L11+8
  62 0022 FFF7FEFF 		bl	puts
  63              	.LVL5:
  33:main.c        **** 
  34:main.c        ****     printf("motor_start\n");
  64              		.loc 1 34 0
  65 0026 4C48     		ldr	r0, .L11+12
  66 0028 FFF7FEFF 		bl	puts
  67              	.LVL6:
  35:main.c        ****     
  36:main.c        ****     int findEdgeBool = 1;
  37:main.c        ****     wait_going_down();
  68              		.loc 1 37 0
  69 002c FFF7FEFF 		bl	wait_going_down
  70              	.LVL7:
  38:main.c        ****     motor_start();
  71              		.loc 1 38 0
  72 0030 FFF7FEFF 		bl	motor_start
  73              	.LVL8:
  39:main.c        ****     int alku = 1;
  74              		.loc 1 39 0
  75 0034 0124     		movs	r4, #1
ARM GAS  C:\Users\roba420\AppData\Local\Temp\ccYjtIGd.s 			page 3


  40:main.c        ****     while (alku == 1) {
  76              		.loc 1 40 0
  77 0036 1CE0     		b	.L2
  78              	.LVL9:
  79              	.L4:
  41:main.c        ****         
  42:main.c        ****         motor_forward(50,0);
  80              		.loc 1 42 0
  81 0038 3220     		movs	r0, #50
  82 003a 0021     		movs	r1, #0
  83 003c FFF7FEFF 		bl	motor_forward
  84              	.LVL10:
  43:main.c        ****         reflectance_read(&ref);
  85              		.loc 1 43 0
  86 0040 04A8     		add	r0, sp, #16
  87 0042 FFF7FEFF 		bl	reflectance_read
  88              	.LVL11:
  44:main.c        ****         reflectance_digital(&dig);
  89              		.loc 1 44 0
  90 0046 02A8     		add	r0, sp, #8
  91 0048 FFF7FEFF 		bl	reflectance_digital
  92              	.LVL12:
  45:main.c        ****     
  46:main.c        ****     if (dig.l3 == 0 && dig.l1 == 0 && dig.r1 == 0 && dig.r3 == 0) {
  93              		.loc 1 46 0
  94 004c BDF80830 		ldrh	r3, [sp, #8]
  95 0050 7BB9     		cbnz	r3, .L2
  96              		.loc 1 46 0 is_stmt 0 discriminator 1
  97 0052 BDF80A30 		ldrh	r3, [sp, #10]
  98 0056 63B9     		cbnz	r3, .L2
  99              		.loc 1 46 0 discriminator 2
 100 0058 BDF80C30 		ldrh	r3, [sp, #12]
 101 005c 4BB9     		cbnz	r3, .L2
 102              		.loc 1 46 0 discriminator 3
 103 005e BDF80E30 		ldrh	r3, [sp, #14]
 104 0062 33B9     		cbnz	r3, .L2
  47:main.c        ****     
  48:main.c        ****         motor_stop();
 105              		.loc 1 48 0 is_stmt 1
 106 0064 FFF7FEFF 		bl	motor_stop
 107              	.LVL13:
  49:main.c        ****         wait_going_down();
 108              		.loc 1 49 0
 109 0068 FFF7FEFF 		bl	wait_going_down
 110              	.LVL14:
  50:main.c        ****         motor_start();
 111              		.loc 1 50 0
 112 006c FFF7FEFF 		bl	motor_start
 113              	.LVL15:
  51:main.c        ****         alku = 0;
 114              		.loc 1 51 0
 115 0070 0024     		movs	r4, #0
 116              	.LVL16:
 117              	.L2:
  40:main.c        ****         
 118              		.loc 1 40 0
 119 0072 002C     		cmp	r4, #0
ARM GAS  C:\Users\roba420\AppData\Local\Temp\ccYjtIGd.s 			page 4


 120 0074 E0D1     		bne	.L4
  52:main.c        ****     }
  53:main.c        ****     }
  54:main.c        ****     motor_drive(255,100,700);
 121              		.loc 1 54 0
 122 0076 FF20     		movs	r0, #255
 123 0078 6421     		movs	r1, #100
 124 007a 4FF42F72 		mov	r2, #700
 125 007e FFF7FEFF 		bl	motor_drive
 126              	.LVL17:
  55:main.c        ****     motor_drive(-255,255,250);
 127              		.loc 1 55 0
 128 0082 6FF0FE00 		mvn	r0, #254
 129 0086 FF21     		movs	r1, #255
 130 0088 FA22     		movs	r2, #250
 131 008a FFF7FEFF 		bl	motor_drive
 132              	.LVL18:
  56:main.c        ****     
  57:main.c        ****     for(;;)
  58:main.c        ****     {
  59:main.c        ****      
  60:main.c        ****         reflectance_read(&ref);
 133              		.loc 1 60 0
 134 008e 04A8     		add	r0, sp, #16
 135 0090 FFF7FEFF 		bl	reflectance_read
 136              	.LVL19:
  61:main.c        ****         reflectance_digital(&dig);
 137              		.loc 1 61 0
 138 0094 02A8     		add	r0, sp, #8
 139 0096 FFF7FEFF 		bl	reflectance_digital
 140              	.LVL20:
  62:main.c        ****         printf("l3(%d) L1(%d) R1(%d) R3(%d) \r\n", dig.l3, dig.l1, dig.r1, dig.r3);
 141              		.loc 1 62 0
 142 009a BDF80810 		ldrh	r1, [sp, #8]
 143 009e BDF80A20 		ldrh	r2, [sp, #10]
 144 00a2 BDF80C30 		ldrh	r3, [sp, #12]
 145 00a6 BDF80E00 		ldrh	r0, [sp, #14]
 146 00aa 0090     		str	r0, [sp]
 147 00ac 2B48     		ldr	r0, .L11+16
 148 00ae FFF7FEFF 		bl	printf
 149              	.LVL21:
  36:main.c        ****     wait_going_down();
 150              		.loc 1 36 0
 151 00b2 0124     		movs	r4, #1
 152              	.LVL22:
  63:main.c        ****         
  64:main.c        ****         while(findEdgeBool == 1) {
 153              		.loc 1 64 0
 154 00b4 36E0     		b	.L5
 155              	.LVL23:
 156              	.L8:
  65:main.c        ****             
  66:main.c        ****              reflectance_read(&ref);
 157              		.loc 1 66 0
 158 00b6 04A8     		add	r0, sp, #16
 159 00b8 FFF7FEFF 		bl	reflectance_read
 160              	.LVL24:
ARM GAS  C:\Users\roba420\AppData\Local\Temp\ccYjtIGd.s 			page 5


  67:main.c        ****         reflectance_digital(&dig);
 161              		.loc 1 67 0
 162 00bc 02A8     		add	r0, sp, #8
 163 00be FFF7FEFF 		bl	reflectance_digital
 164              	.LVL25:
  68:main.c        ****         printf("l3(%d) L1(%d) R1(%d) R3(%d) \r\n", dig.l3, dig.l1, dig.r1, dig.r3);
 165              		.loc 1 68 0
 166 00c2 BDF80810 		ldrh	r1, [sp, #8]
 167 00c6 BDF80A20 		ldrh	r2, [sp, #10]
 168 00ca BDF80C30 		ldrh	r3, [sp, #12]
 169 00ce BDF80E00 		ldrh	r0, [sp, #14]
 170 00d2 0090     		str	r0, [sp]
 171 00d4 2148     		ldr	r0, .L11+16
 172 00d6 FFF7FEFF 		bl	printf
 173              	.LVL26:
  69:main.c        ****             
  70:main.c        ****             
  71:main.c        ****         if(dig.l3 == 1 && dig.l1 == 1 && dig.r1 == 1 && dig.r3 == 1) {    
 174              		.loc 1 71 0
 175 00da BDF80830 		ldrh	r3, [sp, #8]
 176 00de 012B     		cmp	r3, #1
 177 00e0 13D1     		bne	.L6
 178              		.loc 1 71 0 is_stmt 0 discriminator 1
 179 00e2 BDF80A30 		ldrh	r3, [sp, #10]
 180 00e6 012B     		cmp	r3, #1
 181 00e8 0FD1     		bne	.L6
 182              		.loc 1 71 0 discriminator 2
 183 00ea BDF80C30 		ldrh	r3, [sp, #12]
 184 00ee 012B     		cmp	r3, #1
 185 00f0 0BD1     		bne	.L6
 186              		.loc 1 71 0 discriminator 3
 187 00f2 BDF80E30 		ldrh	r3, [sp, #14]
 188 00f6 012B     		cmp	r3, #1
 189 00f8 07D1     		bne	.L6
  72:main.c        ****         motor_forward(255,0);
 190              		.loc 1 72 0 is_stmt 1
 191 00fa FF20     		movs	r0, #255
 192 00fc 0021     		movs	r1, #0
 193 00fe FFF7FEFF 		bl	motor_forward
 194              	.LVL27:
  73:main.c        ****         printf("motor forward\n");
 195              		.loc 1 73 0
 196 0102 1748     		ldr	r0, .L11+20
 197 0104 FFF7FEFF 		bl	puts
 198              	.LVL28:
 199 0108 0CE0     		b	.L5
 200              	.L6:
  74:main.c        ****         } else {
  75:main.c        ****             motor_backward(255,650);
 201              		.loc 1 75 0
 202 010a FF20     		movs	r0, #255
 203 010c 40F28A21 		movw	r1, #650
 204 0110 FFF7FEFF 		bl	motor_backward
 205              	.LVL29:
  76:main.c        ****              printf("motor backward\n");
 206              		.loc 1 76 0
 207 0114 1348     		ldr	r0, .L11+24
ARM GAS  C:\Users\roba420\AppData\Local\Temp\ccYjtIGd.s 			page 6


 208 0116 FFF7FEFF 		bl	puts
 209              	.LVL30:
  77:main.c        ****             findEdgeBool = 0;
  78:main.c        ****             motor_backward(0,0);
 210              		.loc 1 78 0
 211 011a 0020     		movs	r0, #0
 212 011c 0146     		mov	r1, r0
 213 011e FFF7FEFF 		bl	motor_backward
 214              	.LVL31:
  77:main.c        ****             findEdgeBool = 0;
 215              		.loc 1 77 0
 216 0122 0024     		movs	r4, #0
 217              	.LVL32:
 218              	.L5:
  64:main.c        ****             
 219              		.loc 1 64 0
 220 0124 002C     		cmp	r4, #0
 221 0126 C6D1     		bne	.L8
 222              	.L9:
  79:main.c        ****         }
  80:main.c        ****     }
  81:main.c        ****         
  82:main.c        ****         for (;;) {
  83:main.c        ****             motor_drive(-255,255,1000);
 223              		.loc 1 83 0 discriminator 1
 224 0128 6FF0FE00 		mvn	r0, #254
 225 012c FF21     		movs	r1, #255
 226 012e 4FF47A72 		mov	r2, #1000
 227 0132 FFF7FEFF 		bl	motor_drive
 228              	.LVL33:
  84:main.c        ****             motor_drive(255,-255,1000);
 229              		.loc 1 84 0 discriminator 1
 230 0136 FF20     		movs	r0, #255
 231 0138 6FF0FE01 		mvn	r1, #254
 232 013c 4FF47A72 		mov	r2, #1000
 233 0140 FFF7FEFF 		bl	motor_drive
 234              	.LVL34:
  85:main.c        ****             printf("defece\n");
 235              		.loc 1 85 0 discriminator 1
 236 0144 0848     		ldr	r0, .L11+28
 237 0146 FFF7FEFF 		bl	puts
 238              	.LVL35:
  86:main.c        ****         }
 239              		.loc 1 86 0 discriminator 1
 240 014a EDE7     		b	.L9
 241              	.L12:
 242              		.align	2
 243              	.L11:
 244 014c 00000000 		.word	.LC0
 245 0150 00000000 		.word	sensor_isr_handler
 246 0154 0C000000 		.word	.LC1
 247 0158 14000000 		.word	.LC2
 248 015c 20000000 		.word	.LC3
 249 0160 40000000 		.word	.LC4
 250 0164 50000000 		.word	.LC5
 251 0168 60000000 		.word	.LC6
 252              		.cfi_endproc
ARM GAS  C:\Users\roba420\AppData\Local\Temp\ccYjtIGd.s 			page 7


 253              	.LFE63:
 254              		.size	main, .-main
 255              		.section	.text._write,"ax",%progbits
 256              		.align	2
 257              		.global	_write
 258              		.thumb
 259              		.thumb_func
 260              		.type	_write, %function
 261              	_write:
 262              	.LFB64:
  87:main.c        ****      
  88:main.c        **** }   
  89:main.c        **** }
  90:main.c        **** 
  91:main.c        **** 
  92:main.c        **** 
  93:main.c        **** 
  94:main.c        **** 
  95:main.c        **** 
  96:main.c        **** #if 0
  97:main.c        **** int rread(void)
  98:main.c        **** {
  99:main.c        ****     SC0_SetDriveMode(PIN_DM_STRONG);
 100:main.c        ****     SC0_Write(1);
 101:main.c        ****     CyDelayUs(10);
 102:main.c        ****     SC0_SetDriveMode(PIN_DM_DIG_HIZ);
 103:main.c        ****     Timer_1_Start();
 104:main.c        ****     uint16_t start = Timer_1_ReadCounter();
 105:main.c        ****     uint16_t end = 0;
 106:main.c        ****     while(!(Timer_1_ReadStatusRegister() & Timer_1_STATUS_TC)) {
 107:main.c        ****         if(SC0_Read() == 0 && end == 0) {
 108:main.c        ****             end = Timer_1_ReadCounter();
 109:main.c        ****         }
 110:main.c        ****     }
 111:main.c        ****     Timer_1_Stop();
 112:main.c        ****     
 113:main.c        ****     return (start - end);
 114:main.c        **** }
 115:main.c        **** #endif
 116:main.c        **** 
 117:main.c        **** /* Don't remove the functions below */
 118:main.c        **** int _write(int file, char *ptr, int len)
 119:main.c        **** {
 263              		.loc 1 119 0
 264              		.cfi_startproc
 265              		@ args = 0, pretend = 0, frame = 0
 266              		@ frame_needed = 0, uses_anonymous_args = 0
 267              	.LVL36:
 268 0000 F8B5     		push	{r3, r4, r5, r6, r7, lr}
 269              		.cfi_def_cfa_offset 24
 270              		.cfi_offset 3, -24
 271              		.cfi_offset 4, -20
 272              		.cfi_offset 5, -16
 273              		.cfi_offset 6, -12
 274              		.cfi_offset 7, -8
 275              		.cfi_offset 14, -4
 276 0002 0C46     		mov	r4, r1
ARM GAS  C:\Users\roba420\AppData\Local\Temp\ccYjtIGd.s 			page 8


 277 0004 1746     		mov	r7, r2
 278              	.LVL37:
 120:main.c        ****     (void)file; /* Parameter is not used, suppress unused argument warning */
 121:main.c        **** 	int n;
 122:main.c        **** 	for(n = 0; n < len; n++) {
 279              		.loc 1 122 0
 280 0006 0025     		movs	r5, #0
 281 0008 0BE0     		b	.L14
 282              	.LVL38:
 283              	.L16:
 123:main.c        ****         if(*ptr == '\n') UART_1_PutChar('\r');
 284              		.loc 1 123 0
 285 000a 2378     		ldrb	r3, [r4]	@ zero_extendqisi2
 286 000c 0A2B     		cmp	r3, #10
 287 000e 02D1     		bne	.L15
 288              		.loc 1 123 0 is_stmt 0 discriminator 1
 289 0010 0D20     		movs	r0, #13
 290 0012 FFF7FEFF 		bl	UART_1_PutChar
 291              	.LVL39:
 292              	.L15:
 124:main.c        **** 		UART_1_PutChar(*ptr++);
 293              		.loc 1 124 0 is_stmt 1 discriminator 2
 294 0016 661C     		adds	r6, r4, #1
 295              	.LVL40:
 296 0018 2078     		ldrb	r0, [r4]	@ zero_extendqisi2
 297 001a FFF7FEFF 		bl	UART_1_PutChar
 298              	.LVL41:
 122:main.c        ****         if(*ptr == '\n') UART_1_PutChar('\r');
 299              		.loc 1 122 0 discriminator 2
 300 001e 0135     		adds	r5, r5, #1
 301              	.LVL42:
 302              		.loc 1 124 0 discriminator 2
 303 0020 3446     		mov	r4, r6
 304              	.LVL43:
 305              	.L14:
 122:main.c        ****         if(*ptr == '\n') UART_1_PutChar('\r');
 306              		.loc 1 122 0 discriminator 1
 307 0022 BD42     		cmp	r5, r7
 308 0024 F1DB     		blt	.L16
 125:main.c        **** 	}
 126:main.c        **** 	return len;
 127:main.c        **** }
 309              		.loc 1 127 0
 310 0026 3846     		mov	r0, r7
 311 0028 F8BD     		pop	{r3, r4, r5, r6, r7, pc}
 312              		.cfi_endproc
 313              	.LFE64:
 314              		.size	_write, .-_write
 315 002a 00BF     		.section	.text._read,"ax",%progbits
 316              		.align	2
 317              		.global	_read
 318              		.thumb
 319              		.thumb_func
 320              		.type	_read, %function
 321              	_read:
 322              	.LFB65:
 128:main.c        **** 
ARM GAS  C:\Users\roba420\AppData\Local\Temp\ccYjtIGd.s 			page 9


 129:main.c        **** int _read (int file, char *ptr, int count)
 130:main.c        **** {
 323              		.loc 1 130 0
 324              		.cfi_startproc
 325              		@ args = 0, pretend = 0, frame = 0
 326              		@ frame_needed = 0, uses_anonymous_args = 0
 327              	.LVL44:
 328 0000 F8B5     		push	{r3, r4, r5, r6, r7, lr}
 329              		.cfi_def_cfa_offset 24
 330              		.cfi_offset 3, -24
 331              		.cfi_offset 4, -20
 332              		.cfi_offset 5, -16
 333              		.cfi_offset 6, -12
 334              		.cfi_offset 7, -8
 335              		.cfi_offset 14, -4
 336 0002 0F46     		mov	r7, r1
 337 0004 1446     		mov	r4, r2
 338              	.LVL45:
 131:main.c        ****     int chs = 0;
 339              		.loc 1 131 0
 340 0006 0026     		movs	r6, #0
 132:main.c        ****     char ch;
 133:main.c        ****  
 134:main.c        ****     (void)file; /* Parameter is not used, suppress unused argument warning */
 135:main.c        ****     while(count > 0) {
 341              		.loc 1 135 0
 342 0008 12E0     		b	.L20
 343              	.LVL46:
 344              	.L23:
 136:main.c        ****         ch = UART_1_GetChar();
 345              		.loc 1 136 0
 346 000a FFF7FEFF 		bl	UART_1_GetChar
 347              	.LVL47:
 137:main.c        ****         if(ch != 0) {
 348              		.loc 1 137 0
 349 000e 0546     		mov	r5, r0
 350 0010 70B1     		cbz	r0, .L20
 138:main.c        ****             UART_1_PutChar(ch);
 351              		.loc 1 138 0
 352 0012 FFF7FEFF 		bl	UART_1_PutChar
 353              	.LVL48:
 139:main.c        ****             chs++;
 354              		.loc 1 139 0
 355 0016 0136     		adds	r6, r6, #1
 356              	.LVL49:
 140:main.c        ****             if(ch == '\r') {
 357              		.loc 1 140 0
 358 0018 0D2D     		cmp	r5, #13
 359 001a 03D1     		bne	.L21
 360              	.LVL50:
 141:main.c        ****                 ch = '\n';
 142:main.c        ****                 UART_1_PutChar(ch);
 361              		.loc 1 142 0
 362 001c 0A20     		movs	r0, #10
 363 001e FFF7FEFF 		bl	UART_1_PutChar
 364              	.LVL51:
 141:main.c        ****                 ch = '\n';
ARM GAS  C:\Users\roba420\AppData\Local\Temp\ccYjtIGd.s 			page 10


 365              		.loc 1 141 0
 366 0022 0A25     		movs	r5, #10
 367              	.LVL52:
 368              	.L21:
 143:main.c        ****             }
 144:main.c        ****             *ptr++ = ch;
 369              		.loc 1 144 0
 370 0024 7B1C     		adds	r3, r7, #1
 371              	.LVL53:
 372 0026 3D70     		strb	r5, [r7]
 145:main.c        ****             count--;
 373              		.loc 1 145 0
 374 0028 013C     		subs	r4, r4, #1
 375              	.LVL54:
 146:main.c        ****             if(ch == '\n') break;
 376              		.loc 1 146 0
 377 002a 0A2D     		cmp	r5, #10
 378 002c 02D0     		beq	.L22
 144:main.c        ****             count--;
 379              		.loc 1 144 0
 380 002e 1F46     		mov	r7, r3
 381              	.LVL55:
 382              	.L20:
 135:main.c        ****         ch = UART_1_GetChar();
 383              		.loc 1 135 0
 384 0030 002C     		cmp	r4, #0
 385 0032 EADC     		bgt	.L23
 386              	.LVL56:
 387              	.L22:
 147:main.c        ****         }
 148:main.c        ****     }
 149:main.c        ****     return chs;
 150:main.c        **** }
 388              		.loc 1 150 0
 389 0034 3046     		mov	r0, r6
 390 0036 F8BD     		pop	{r3, r4, r5, r6, r7, pc}
 391              		.cfi_endproc
 392              	.LFE65:
 393              		.size	_read, .-_read
 394              		.section	.rodata.str1.4,"aMS",%progbits,1
 395              		.align	2
 396              	.LC0:
 397 0000 6D61696E 		.ascii	"main start\000"
 397      20737461 
 397      727400
 398 000b 00       		.space	1
 399              	.LC1:
 400 000c 53414154 		.ascii	"SAATANA\000"
 400      414E4100 
 401              	.LC2:
 402 0014 6D6F746F 		.ascii	"motor_start\000"
 402      725F7374 
 402      61727400 
 403              	.LC3:
 404 0020 6C332825 		.ascii	"l3(%d) L1(%d) R1(%d) R3(%d) \015\012\000"
 404      6429204C 
 404      31282564 
ARM GAS  C:\Users\roba420\AppData\Local\Temp\ccYjtIGd.s 			page 11


 404      29205231 
 404      28256429 
 405 003f 00       		.space	1
 406              	.LC4:
 407 0040 6D6F746F 		.ascii	"motor forward\000"
 407      7220666F 
 407      72776172 
 407      6400
 408 004e 0000     		.space	2
 409              	.LC5:
 410 0050 6D6F746F 		.ascii	"motor backward\000"
 410      72206261 
 410      636B7761 
 410      726400
 411 005f 00       		.space	1
 412              	.LC6:
 413 0060 64656665 		.ascii	"defece\000"
 413      636500
 414 0067 00       		.text
 415              	.Letext0:
 416              		.file 2 "c:\\program files\\cypress\\psoc creator\\4.0\\psoc creator\\import\\gnu\\arm\\4.9.3\\arm
 417              		.file 3 "c:\\program files\\cypress\\psoc creator\\4.0\\psoc creator\\import\\gnu\\arm\\4.9.3\\arm
 418              		.file 4 "Generated_Source\\PSoC5/cytypes.h"
 419              		.file 5 ".\\ZumoLibrary/Reflectance.h"
 420              		.file 6 "Generated_Source\\PSoC5/UART_1.h"
 421              		.file 7 "Generated_Source\\PSoC5/sensor_isr.h"
 422              		.file 8 "Generated_Source\\PSoC5/IR_led.h"
 423              		.file 9 ".\\ZumoLibrary/IR.h"
 424              		.file 10 ".\\ZumoLibrary/Motor.h"
 425              		.file 11 "Generated_Source\\PSoC5/core_cm3.h"
 426              		.file 12 "<built-in>"
 427              		.file 13 "c:\\program files\\cypress\\psoc creator\\4.0\\psoc creator\\import\\gnu\\arm\\4.9.3\\ar