ARM GAS  C:\Users\Mikael\AppData\Local\Temp\ccGEwMPj.s 			page 1


   1              		.syntax unified
   2              		.cpu cortex-m3
   3              		.fpu softvfp
   4              		.eabi_attribute 20, 1
   5              		.eabi_attribute 21, 1
   6              		.eabi_attribute 23, 3
   7              		.eabi_attribute 24, 1
   8              		.eabi_attribute 25, 1
   9              		.eabi_attribute 26, 1
  10              		.eabi_attribute 30, 1
  11              		.eabi_attribute 34, 1
  12              		.eabi_attribute 18, 4
  13              		.thumb
  14              		.file	"Motor.c"
  15              		.text
  16              	.Ltext0:
  17              		.cfi_sections	.debug_frame
  18              		.section	.text.motor_start,"ax",%progbits
  19              		.align	2
  20              		.global	motor_start
  21              		.thumb
  22              		.thumb_func
  23              		.type	motor_start, %function
  24              	motor_start:
  25              	.LFB63:
  26              		.file 1 "ZumoLibrary\\Motor.c"
   1:ZumoLibrary/Motor.c **** /**
   2:ZumoLibrary/Motor.c ****  * @file    Motor.c
   3:ZumoLibrary/Motor.c ****  * @brief   Basic methods for operating motor sensor. For more details, please refer to Motor.h fil
   4:ZumoLibrary/Motor.c ****  * @details included in Zumo shield
   5:ZumoLibrary/Motor.c **** */
   6:ZumoLibrary/Motor.c **** #include "Motor.h"
   7:ZumoLibrary/Motor.c **** 
   8:ZumoLibrary/Motor.c **** 
   9:ZumoLibrary/Motor.c **** /**
  10:ZumoLibrary/Motor.c **** * @brief    Starting motor sensors
  11:ZumoLibrary/Motor.c **** * @details  
  12:ZumoLibrary/Motor.c **** */
  13:ZumoLibrary/Motor.c **** void motor_start()
  14:ZumoLibrary/Motor.c **** {
  27              		.loc 1 14 0
  28              		.cfi_startproc
  29              		@ args = 0, pretend = 0, frame = 0
  30              		@ frame_needed = 0, uses_anonymous_args = 0
  31 0000 08B5     		push	{r3, lr}
  32              		.cfi_def_cfa_offset 8
  33              		.cfi_offset 3, -8
  34              		.cfi_offset 14, -4
  15:ZumoLibrary/Motor.c ****     PWM_Start();
  35              		.loc 1 15 0
  36 0002 FFF7FEFF 		bl	PWM_Start
  37              	.LVL0:
  38 0006 08BD     		pop	{r3, pc}
  39              		.cfi_endproc
  40              	.LFE63:
  41              		.size	motor_start, .-motor_start
  42              		.section	.text.motor_stop,"ax",%progbits
ARM GAS  C:\Users\Mikael\AppData\Local\Temp\ccGEwMPj.s 			page 2


  43              		.align	2
  44              		.global	motor_stop
  45              		.thumb
  46              		.thumb_func
  47              		.type	motor_stop, %function
  48              	motor_stop:
  49              	.LFB64:
  16:ZumoLibrary/Motor.c **** }
  17:ZumoLibrary/Motor.c **** 
  18:ZumoLibrary/Motor.c **** 
  19:ZumoLibrary/Motor.c **** /**
  20:ZumoLibrary/Motor.c **** * @brief    Stopping motor sensors
  21:ZumoLibrary/Motor.c **** * @details
  22:ZumoLibrary/Motor.c **** */
  23:ZumoLibrary/Motor.c **** void motor_stop()
  24:ZumoLibrary/Motor.c **** {
  50              		.loc 1 24 0
  51              		.cfi_startproc
  52              		@ args = 0, pretend = 0, frame = 0
  53              		@ frame_needed = 0, uses_anonymous_args = 0
  54 0000 08B5     		push	{r3, lr}
  55              		.cfi_def_cfa_offset 8
  56              		.cfi_offset 3, -8
  57              		.cfi_offset 14, -4
  25:ZumoLibrary/Motor.c ****     PWM_Stop();
  58              		.loc 1 25 0
  59 0002 FFF7FEFF 		bl	PWM_Stop
  60              	.LVL1:
  61 0006 08BD     		pop	{r3, pc}
  62              		.cfi_endproc
  63              	.LFE64:
  64              		.size	motor_stop, .-motor_stop
  65              		.section	.text.motor_forward,"ax",%progbits
  66              		.align	2
  67              		.global	motor_forward
  68              		.thumb
  69              		.thumb_func
  70              		.type	motor_forward, %function
  71              	motor_forward:
  72              	.LFB65:
  26:ZumoLibrary/Motor.c **** }
  27:ZumoLibrary/Motor.c **** 
  28:ZumoLibrary/Motor.c **** 
  29:ZumoLibrary/Motor.c **** /**
  30:ZumoLibrary/Motor.c **** * @brief    Moving motors forward
  31:ZumoLibrary/Motor.c **** * @details  giveing same speed to each side of PWM to make motors go forward
  32:ZumoLibrary/Motor.c **** * @param    uint8 speed : speed value
  33:ZumoLibrary/Motor.c **** * @param    uint32 delay : delay time
  34:ZumoLibrary/Motor.c **** */
  35:ZumoLibrary/Motor.c **** void motor_forward(uint8 speed,uint32 delay)
  36:ZumoLibrary/Motor.c **** {
  73              		.loc 1 36 0
  74              		.cfi_startproc
  75              		@ args = 0, pretend = 0, frame = 0
  76              		@ frame_needed = 0, uses_anonymous_args = 0
  77              	.LVL2:
  78 0000 38B5     		push	{r3, r4, r5, lr}
ARM GAS  C:\Users\Mikael\AppData\Local\Temp\ccGEwMPj.s 			page 3


  79              		.cfi_def_cfa_offset 16
  80              		.cfi_offset 3, -16
  81              		.cfi_offset 4, -12
  82              		.cfi_offset 5, -8
  83              		.cfi_offset 14, -4
  84 0002 0446     		mov	r4, r0
  85 0004 0D46     		mov	r5, r1
  37:ZumoLibrary/Motor.c ****     MotorDirLeft_Write(0);      // set LeftMotor forward mode
  86              		.loc 1 37 0
  87 0006 0020     		movs	r0, #0
  88              	.LVL3:
  89 0008 FFF7FEFF 		bl	MotorDirLeft_Write
  90              	.LVL4:
  38:ZumoLibrary/Motor.c ****     MotorDirRight_Write(0);     // set RightMotor forward mode
  91              		.loc 1 38 0
  92 000c 0020     		movs	r0, #0
  93 000e FFF7FEFF 		bl	MotorDirRight_Write
  94              	.LVL5:
  39:ZumoLibrary/Motor.c ****     PWM_WriteCompare1(speed); 
  95              		.loc 1 39 0
  96 0012 2046     		mov	r0, r4
  97 0014 FFF7FEFF 		bl	PWM_WriteCompare1
  98              	.LVL6:
  40:ZumoLibrary/Motor.c ****     PWM_WriteCompare2(speed); 
  99              		.loc 1 40 0
 100 0018 2046     		mov	r0, r4
 101 001a FFF7FEFF 		bl	PWM_WriteCompare2
 102              	.LVL7:
  41:ZumoLibrary/Motor.c ****     CyDelay(delay);
 103              		.loc 1 41 0
 104 001e 2846     		mov	r0, r5
 105 0020 FFF7FEFF 		bl	CyDelay
 106              	.LVL8:
 107 0024 38BD     		pop	{r3, r4, r5, pc}
 108              		.cfi_endproc
 109              	.LFE65:
 110              		.size	motor_forward, .-motor_forward
 111 0026 00BF     		.section	.text.motor_turn,"ax",%progbits
 112              		.align	2
 113              		.global	motor_turn
 114              		.thumb
 115              		.thumb_func
 116              		.type	motor_turn, %function
 117              	motor_turn:
 118              	.LFB66:
  42:ZumoLibrary/Motor.c **** }
  43:ZumoLibrary/Motor.c **** 
  44:ZumoLibrary/Motor.c **** 
  45:ZumoLibrary/Motor.c **** /**
  46:ZumoLibrary/Motor.c **** * @brief    Moving motors to make a turn 
  47:ZumoLibrary/Motor.c **** * @details  moving left when l_speed < r_speed or moving right when l_speed > r_speed
  48:ZumoLibrary/Motor.c **** * @param    uint8 l_speed : left motor speed value
  49:ZumoLibrary/Motor.c **** * @param    uint8 r_speed : right motor speed value
  50:ZumoLibrary/Motor.c **** * @param    uint32 delay : delay time
  51:ZumoLibrary/Motor.c **** */
  52:ZumoLibrary/Motor.c **** void motor_turn(uint8 l_speed, uint8 r_speed, uint32 delay)
  53:ZumoLibrary/Motor.c **** {
ARM GAS  C:\Users\Mikael\AppData\Local\Temp\ccGEwMPj.s 			page 4


 119              		.loc 1 53 0
 120              		.cfi_startproc
 121              		@ args = 0, pretend = 0, frame = 0
 122              		@ frame_needed = 0, uses_anonymous_args = 0
 123              	.LVL9:
 124 0000 38B5     		push	{r3, r4, r5, lr}
 125              		.cfi_def_cfa_offset 16
 126              		.cfi_offset 3, -16
 127              		.cfi_offset 4, -12
 128              		.cfi_offset 5, -8
 129              		.cfi_offset 14, -4
 130 0002 0D46     		mov	r5, r1
 131 0004 1446     		mov	r4, r2
  54:ZumoLibrary/Motor.c ****     PWM_WriteCompare1(l_speed); 
 132              		.loc 1 54 0
 133 0006 FFF7FEFF 		bl	PWM_WriteCompare1
 134              	.LVL10:
  55:ZumoLibrary/Motor.c ****     PWM_WriteCompare2(r_speed); 
 135              		.loc 1 55 0
 136 000a 2846     		mov	r0, r5
 137 000c FFF7FEFF 		bl	PWM_WriteCompare2
 138              	.LVL11:
  56:ZumoLibrary/Motor.c ****     CyDelay(delay);
 139              		.loc 1 56 0
 140 0010 2046     		mov	r0, r4
 141 0012 FFF7FEFF 		bl	CyDelay
 142              	.LVL12:
 143 0016 38BD     		pop	{r3, r4, r5, pc}
 144              		.cfi_endproc
 145              	.LFE66:
 146              		.size	motor_turn, .-motor_turn
 147              		.section	.text.motor_drive,"ax",%progbits
 148              		.align	2
 149              		.global	motor_drive
 150              		.thumb
 151              		.thumb_func
 152              		.type	motor_drive, %function
 153              	motor_drive:
 154              	.LFB67:
  57:ZumoLibrary/Motor.c **** }
  58:ZumoLibrary/Motor.c **** 
  59:ZumoLibrary/Motor.c **** void motor_drive(int l_speed, int r_speed, int32 delay)
  60:ZumoLibrary/Motor.c **** {
 155              		.loc 1 60 0
 156              		.cfi_startproc
 157              		@ args = 0, pretend = 0, frame = 0
 158              		@ frame_needed = 0, uses_anonymous_args = 0
 159              	.LVL13:
 160 0000 70B5     		push	{r4, r5, r6, lr}
 161              		.cfi_def_cfa_offset 16
 162              		.cfi_offset 4, -16
 163              		.cfi_offset 5, -12
 164              		.cfi_offset 6, -8
 165              		.cfi_offset 14, -4
 166 0002 0D46     		mov	r5, r1
 167 0004 1646     		mov	r6, r2
  61:ZumoLibrary/Motor.c ****     if (l_speed >= 0 && r_speed >= 0) {
ARM GAS  C:\Users\Mikael\AppData\Local\Temp\ccGEwMPj.s 			page 5


 168              		.loc 1 61 0
 169 0006 041E     		subs	r4, r0, #0
 170 0008 11DB     		blt	.L10
 171              		.loc 1 61 0 is_stmt 0 discriminator 1
 172 000a 0029     		cmp	r1, #0
 173 000c 0FDB     		blt	.L10
  62:ZumoLibrary/Motor.c ****         MotorDirLeft_Write(0);      // set LeftMotor forward mode
 174              		.loc 1 62 0 is_stmt 1
 175 000e 0020     		movs	r0, #0
 176              	.LVL14:
 177 0010 FFF7FEFF 		bl	MotorDirLeft_Write
 178              	.LVL15:
  63:ZumoLibrary/Motor.c ****         MotorDirRight_Write(0);     // set RightMotor forward mode
 179              		.loc 1 63 0
 180 0014 0020     		movs	r0, #0
 181 0016 FFF7FEFF 		bl	MotorDirRight_Write
 182              	.LVL16:
  64:ZumoLibrary/Motor.c ****         
  65:ZumoLibrary/Motor.c ****         PWM_WriteCompare1(l_speed); 
 183              		.loc 1 65 0
 184 001a E0B2     		uxtb	r0, r4
 185 001c FFF7FEFF 		bl	PWM_WriteCompare1
 186              	.LVL17:
  66:ZumoLibrary/Motor.c ****         PWM_WriteCompare2(r_speed); 
 187              		.loc 1 66 0
 188 0020 E8B2     		uxtb	r0, r5
 189 0022 FFF7FEFF 		bl	PWM_WriteCompare2
 190              	.LVL18:
  67:ZumoLibrary/Motor.c ****         CyDelay(delay);
 191              		.loc 1 67 0
 192 0026 3046     		mov	r0, r6
 193 0028 FFF7FEFF 		bl	CyDelay
 194              	.LVL19:
 195 002c 70BD     		pop	{r4, r5, r6, pc}
 196              	.LVL20:
 197              	.L10:
  68:ZumoLibrary/Motor.c ****         
  69:ZumoLibrary/Motor.c ****         
  70:ZumoLibrary/Motor.c ****     } else if (l_speed < 0 && r_speed >= 0){
 198              		.loc 1 70 0
 199 002e 002C     		cmp	r4, #0
 200 0030 12DA     		bge	.L12
 201              		.loc 1 70 0 is_stmt 0 discriminator 1
 202 0032 002D     		cmp	r5, #0
 203 0034 10DB     		blt	.L12
  71:ZumoLibrary/Motor.c ****         MotorDirLeft_Write(1);      // set LeftMotor backward mode
 204              		.loc 1 71 0 is_stmt 1
 205 0036 0120     		movs	r0, #1
 206              	.LVL21:
 207 0038 FFF7FEFF 		bl	MotorDirLeft_Write
 208              	.LVL22:
  72:ZumoLibrary/Motor.c ****         MotorDirRight_Write(0);     // set RightMotor forward mode
 209              		.loc 1 72 0
 210 003c 0020     		movs	r0, #0
 211 003e FFF7FEFF 		bl	MotorDirRight_Write
 212              	.LVL23:
  73:ZumoLibrary/Motor.c ****         
ARM GAS  C:\Users\Mikael\AppData\Local\Temp\ccGEwMPj.s 			page 6


  74:ZumoLibrary/Motor.c ****         l_speed = l_speed*-1;
 213              		.loc 1 74 0
 214 0042 6042     		negs	r0, r4
 215              	.LVL24:
  75:ZumoLibrary/Motor.c ****         PWM_WriteCompare1(l_speed); 
 216              		.loc 1 75 0
 217 0044 C0B2     		uxtb	r0, r0
 218              	.LVL25:
 219 0046 FFF7FEFF 		bl	PWM_WriteCompare1
 220              	.LVL26:
  76:ZumoLibrary/Motor.c ****         PWM_WriteCompare2(r_speed); 
 221              		.loc 1 76 0
 222 004a E8B2     		uxtb	r0, r5
 223 004c FFF7FEFF 		bl	PWM_WriteCompare2
 224              	.LVL27:
  77:ZumoLibrary/Motor.c ****         CyDelay(delay);
 225              		.loc 1 77 0
 226 0050 3046     		mov	r0, r6
 227 0052 FFF7FEFF 		bl	CyDelay
 228              	.LVL28:
 229 0056 70BD     		pop	{r4, r5, r6, pc}
 230              	.LVL29:
 231              	.L12:
  78:ZumoLibrary/Motor.c ****         
  79:ZumoLibrary/Motor.c ****         
  80:ZumoLibrary/Motor.c ****     } else if (l_speed >= 0 && r_speed < 0){
 232              		.loc 1 80 0
 233 0058 002C     		cmp	r4, #0
 234 005a 0FDB     		blt	.L13
 235              		.loc 1 80 0 is_stmt 0 discriminator 1
 236 005c 002D     		cmp	r5, #0
 237 005e 0DDA     		bge	.L13
  81:ZumoLibrary/Motor.c ****         MotorDirRight_Write(1);     // set RightMotor backward mode
 238              		.loc 1 81 0 is_stmt 1
 239 0060 0120     		movs	r0, #1
 240              	.LVL30:
 241 0062 FFF7FEFF 		bl	MotorDirRight_Write
 242              	.LVL31:
  82:ZumoLibrary/Motor.c ****         MotorDirLeft_Write(0);      // set LeftMotor forward mode
 243              		.loc 1 82 0
 244 0066 0020     		movs	r0, #0
 245 0068 FFF7FEFF 		bl	MotorDirLeft_Write
 246              	.LVL32:
  83:ZumoLibrary/Motor.c ****         
  84:ZumoLibrary/Motor.c ****         r_speed = r_speed*-1;
 247              		.loc 1 84 0
 248 006c 6D42     		negs	r5, r5
 249              	.LVL33:
  85:ZumoLibrary/Motor.c ****         PWM_WriteCompare1(l_speed); 
 250              		.loc 1 85 0
 251 006e E0B2     		uxtb	r0, r4
 252 0070 FFF7FEFF 		bl	PWM_WriteCompare1
 253              	.LVL34:
  86:ZumoLibrary/Motor.c ****         PWM_WriteCompare2(r_speed);
 254              		.loc 1 86 0
 255 0074 E8B2     		uxtb	r0, r5
 256 0076 FFF7FEFF 		bl	PWM_WriteCompare2
ARM GAS  C:\Users\Mikael\AppData\Local\Temp\ccGEwMPj.s 			page 7


 257              	.LVL35:
 258 007a 70BD     		pop	{r4, r5, r6, pc}
 259              	.LVL36:
 260              	.L13:
  87:ZumoLibrary/Motor.c ****         
  88:ZumoLibrary/Motor.c ****         
  89:ZumoLibrary/Motor.c ****     } else if (l_speed < 0 && r_speed < 0){
 261              		.loc 1 89 0
 262 007c 002C     		cmp	r4, #0
 263 007e 0FDA     		bge	.L9
 264              		.loc 1 89 0 is_stmt 0 discriminator 1
 265 0080 002D     		cmp	r5, #0
 266 0082 0DDA     		bge	.L9
  90:ZumoLibrary/Motor.c ****         MotorDirRight_Write(1);     // set RightMotor backward mode
 267              		.loc 1 90 0 is_stmt 1
 268 0084 0120     		movs	r0, #1
 269              	.LVL37:
 270 0086 FFF7FEFF 		bl	MotorDirRight_Write
 271              	.LVL38:
  91:ZumoLibrary/Motor.c ****         MotorDirLeft_Write(1);      // set LeftMotor backward mode
 272              		.loc 1 91 0
 273 008a 0120     		movs	r0, #1
 274 008c FFF7FEFF 		bl	MotorDirLeft_Write
 275              	.LVL39:
  92:ZumoLibrary/Motor.c ****         
  93:ZumoLibrary/Motor.c ****         r_speed = r_speed*-1;
 276              		.loc 1 93 0
 277 0090 6D42     		negs	r5, r5
 278              	.LVL40:
  94:ZumoLibrary/Motor.c ****         l_speed = l_speed*-1;
 279              		.loc 1 94 0
 280 0092 6042     		negs	r0, r4
 281              	.LVL41:
  95:ZumoLibrary/Motor.c ****         PWM_WriteCompare1(l_speed); 
 282              		.loc 1 95 0
 283 0094 C0B2     		uxtb	r0, r0
 284              	.LVL42:
 285 0096 FFF7FEFF 		bl	PWM_WriteCompare1
 286              	.LVL43:
  96:ZumoLibrary/Motor.c ****         PWM_WriteCompare2(r_speed);
 287              		.loc 1 96 0
 288 009a E8B2     		uxtb	r0, r5
 289 009c FFF7FEFF 		bl	PWM_WriteCompare2
 290              	.LVL44:
 291              	.L9:
 292 00a0 70BD     		pop	{r4, r5, r6, pc}
 293              		.cfi_endproc
 294              	.LFE67:
 295              		.size	motor_drive, .-motor_drive
 296 00a2 00BF     		.section	.text.motor_backward,"ax",%progbits
 297              		.align	2
 298              		.global	motor_backward
 299              		.thumb
 300              		.thumb_func
 301              		.type	motor_backward, %function
 302              	motor_backward:
 303              	.LFB68:
ARM GAS  C:\Users\Mikael\AppData\Local\Temp\ccGEwMPj.s 			page 8


  97:ZumoLibrary/Motor.c ****     }
  98:ZumoLibrary/Motor.c **** }
  99:ZumoLibrary/Motor.c **** 
 100:ZumoLibrary/Motor.c **** 
 101:ZumoLibrary/Motor.c **** /**
 102:ZumoLibrary/Motor.c **** * @brief    Moving motors backward
 103:ZumoLibrary/Motor.c **** * @details  setting backward mode to each motors and gives same speed to each side of PWM
 104:ZumoLibrary/Motor.c **** * @param    uint8 speed : speed value
 105:ZumoLibrary/Motor.c **** * @param    uint32 delay : delay time
 106:ZumoLibrary/Motor.c **** */
 107:ZumoLibrary/Motor.c **** void motor_backward(uint8 speed,uint32 delay)
 108:ZumoLibrary/Motor.c **** {
 304              		.loc 1 108 0
 305              		.cfi_startproc
 306              		@ args = 0, pretend = 0, frame = 0
 307              		@ frame_needed = 0, uses_anonymous_args = 0
 308              	.LVL45:
 309 0000 38B5     		push	{r3, r4, r5, lr}
 310              		.cfi_def_cfa_offset 16
 311              		.cfi_offset 3, -16
 312              		.cfi_offset 4, -12
 313              		.cfi_offset 5, -8
 314              		.cfi_offset 14, -4
 315 0002 0446     		mov	r4, r0
 316 0004 0D46     		mov	r5, r1
 109:ZumoLibrary/Motor.c ****     MotorDirLeft_Write(1);      // set LeftMotor backward mode
 317              		.loc 1 109 0
 318 0006 0120     		movs	r0, #1
 319              	.LVL46:
 320 0008 FFF7FEFF 		bl	MotorDirLeft_Write
 321              	.LVL47:
 110:ZumoLibrary/Motor.c ****     MotorDirRight_Write(1);     // set RightMotor backward mode
 322              		.loc 1 110 0
 323 000c 0120     		movs	r0, #1
 324 000e FFF7FEFF 		bl	MotorDirRight_Write
 325              	.LVL48:
 111:ZumoLibrary/Motor.c ****     PWM_WriteCompare1(speed); 
 326              		.loc 1 111 0
 327 0012 2046     		mov	r0, r4
 328 0014 FFF7FEFF 		bl	PWM_WriteCompare1
 329              	.LVL49:
 112:ZumoLibrary/Motor.c ****     PWM_WriteCompare2(speed); 
 330              		.loc 1 112 0
 331 0018 2046     		mov	r0, r4
 332 001a FFF7FEFF 		bl	PWM_WriteCompare2
 333              	.LVL50:
 113:ZumoLibrary/Motor.c ****     CyDelay(delay);
 334              		.loc 1 113 0
 335 001e 2846     		mov	r0, r5
 336 0020 FFF7FEFF 		bl	CyDelay
 337              	.LVL51:
 338 0024 38BD     		pop	{r3, r4, r5, pc}
 339              		.cfi_endproc
 340              	.LFE68:
 341              		.size	motor_backward, .-motor_backward
 342 0026 00BF     		.text
 343              	.Letext0:
ARM GAS  C:\Users\Mikael\AppData\Local\Temp\ccGEwMPj.s 			page 9


 344              		.file 2 "c:\\program files (x86)\\cypress\\psoc creator\\4.0\\psoc creator\\import\\gnu\\arm\\4.9.
 345              		.file 3 "c:\\program files (x86)\\cypress\\psoc creator\\4.0\\psoc creator\\import\\gnu\\arm\\4.9.
 346              		.file 4 "Generated_Source\\PSoC5/cytypes.h"
 347              		.file 5 "Generated_Source\\PSoC5/PWM.h"
 348              		.file 6 "Generated_Source\\PSoC5/MotorDirLeft.h"
 349              		.file 7 "Generated_Source\\PSoC5/MotorDirRight.h"
 350              		.file 8 "Generated_Source\\PSoC5/core_cm3.h"
 351              		.file 9 "Generated_Source\\PSoC5/CyLib.h"